; Function Attrs: mustprogress uwtable
define void @_ZNK6icu_7712UnifiedCache5flushEv(ptr noundef nonnull align 8 dereferenceable(56) %0) local_unnamed_addr #0 align 2 personality ptr @__gxx_personality_v0 {
  %2 = load ptr, ptr @_ZL11gCacheMutex, align 8, !tbaa !9
  %3 = tail call noundef i32 @pthread_mutex_lock(ptr noundef nonnull align 8 dereferenceable(40) %2) #16
  %.not.i.i = icmp eq i32 %3, 0
  br i1 %.not.i.i, label %_ZNSt10lock_guardISt5mutexEC2ERS0_.exit, label %4

4:                                                ; preds = %1
  tail call void @_ZSt20__throw_system_errori(i32 noundef %3) #18
  unreachable

_ZNSt10lock_guardISt5mutexEC2ERS0_.exit:          ; preds = %1, %6
  %5 = invoke noundef signext i8 @_ZNK6icu_7712UnifiedCache6_flushEa(ptr noundef nonnull align 8 dereferenceable(56) %0, i8 noundef signext 0)
          to label %6 unwind label %7

6:                                                ; preds = %_ZNSt10lock_guardISt5mutexEC2ERS0_.exit
  %.not = icmp eq i8 %5, 0
  br i1 %.not, label %10, label %_ZNSt10lock_guardISt5mutexEC2ERS0_.exit, !llvm.loop !39

7:                                                ; preds = %_ZNSt10lock_guardISt5mutexEC2ERS0_.exit
  %8 = landingpad { ptr, i32 }
          cleanup
  %9 = tail call noundef i32 @pthread_mutex_unlock(ptr noundef nonnull align 8 dereferenceable(40) %2) #16
  resume { ptr, i32 } %8

10:                                               ; preds = %6
  %11 = tail call noundef i32 @pthread_mutex_unlock(ptr noundef nonnull align 8 dereferenceable(40) %2) #16
  ret void
}